; Function Attrs: mustprogress uwtable
define void @_ZN18SaveSnapshotDialog33on_alllayersCheckBox_stateChangedEi(ptr nocapture noundef nonnull readonly align 8 dereferenceable(88) %0, i32 noundef %1) local_unnamed_addr #0 align 2 {
  %3 = icmp eq i32 %1, 2
  %4 = getelementptr inbounds i8, ptr %0, i64 48
  %5 = load ptr, ptr %4, align 8
  %6 = getelementptr inbounds i8, ptr %5, i64 120
  %7 = load ptr, ptr %6, align 8
  br i1 %3, label %8, label %9

8:                                                ; preds = %2
  tail call void @_ZN7QWidget10setEnabledEb(ptr noundef nonnull align 8 dereferenceable(48) %7, i1 noundef zeroext true)
  br label %13

9:                                                ; preds = %2
  tail call void @_ZN7QWidget10setEnabledEb(ptr noundef nonnull align 8 dereferenceable(48) %7, i1 noundef zeroext false)
  %10 = load ptr, ptr %4, align 8
  %11 = getelementptr inbounds i8, ptr %10, i64 120
  %12 = load ptr, ptr %11, align 8
  tail call void @_ZN15QAbstractButton10setCheckedEb(ptr noundef nonnull align 8 dereferenceable(48) %12, i1 noundef zeroext false)
  br label %13

13:                                               ; preds = %9, %8
  ret void
}